; Function Attrs: mustprogress uwtable
define noundef zeroext i1 @_Z16AlignCallBackPosiPKc(i32 %0, ptr noundef %1) #9 personality ptr @__gxx_personality_v0 {
  %3 = alloca %class.QString, align 8
  %4 = load ptr, ptr @_ZL17globalLogTextEdit, align 8
  %.not.i = icmp eq ptr %1, null
  br i1 %.not.i, label %_ZN7QStringC2EPKc.exit, label %5

5:                                                ; preds = %2
  %6 = tail call i64 @strlen(ptr noundef nonnull dereferenceable(1) %1) #21
  %7 = trunc i64 %6 to i32
  br label %_ZN7QStringC2EPKc.exit

_ZN7QStringC2EPKc.exit:                           ; preds = %2, %5
  %8 = phi i32 [ %7, %5 ], [ -1, %2 ]
  %9 = tail call noundef ptr @_ZN7QString16fromAscii_helperEPKci(ptr noundef %1, i32 noundef %8)
  store ptr %9, ptr %3, align 8
  invoke void @_ZN9QTextEdit15insertPlainTextERK7QString(ptr noundef nonnull align 8 dereferenceable(48) %4, ptr noundef nonnull align 8 dereferenceable(8) %3)
          to label %10 unwind label %17

10:                                               ; preds = %_ZN7QStringC2EPKc.exit
  %11 = load ptr, ptr %3, align 8
  %12 = load atomic i32, ptr %11 monotonic, align 4
  switch i32 %12, label %_ZN9QtPrivate8RefCount5derefEv.exit.i [
    i32 0, label %_ZN9QtPrivate8RefCount5derefEv.exit.thread2.i
    i32 -1, label %_ZN7QStringD2Ev.exit
  ]

_ZN9QtPrivate8RefCount5derefEv.exit.i:            ; preds = %10
  %13 = atomicrmw sub ptr %11, i32 1 seq_cst, align 4
  %.not.i2 = icmp eq i32 %13, 1
  br i1 %.not.i2, label %_ZN9QtPrivate8RefCount5derefEv.exit._ZN9QtPrivate8RefCount5derefEv.exit.thread2_crit_edge.i, label %_ZN7QStringD2Ev.exit

_ZN9QtPrivate8RefCount5derefEv.exit._ZN9QtPrivate8RefCount5derefEv.exit.thread2_crit_edge.i: ; preds = %_ZN9QtPrivate8RefCount5derefEv.exit.i
  %.pre.i = load ptr, ptr %3, align 8
  br label %_ZN9QtPrivate8RefCount5derefEv.exit.thread2.i

_ZN9QtPrivate8RefCount5derefEv.exit.thread2.i:    ; preds = %_ZN9QtPrivate8RefCount5derefEv.exit._ZN9QtPrivate8RefCount5derefEv.exit.thread2_crit_edge.i, %10
  %14 = phi ptr [ %.pre.i, %_ZN9QtPrivate8RefCount5derefEv.exit._ZN9QtPrivate8RefCount5derefEv.exit.thread2_crit_edge.i ], [ %11, %10 ]
  call void @_ZN10QArrayData10deallocateEPS_mm(ptr noundef %14, i64 noundef 2, i64 noundef 8) #19
  br label %_ZN7QStringD2Ev.exit

_ZN7QStringD2Ev.exit:                             ; preds = %10, %_ZN9QtPrivate8RefCount5derefEv.exit.i, %_ZN9QtPrivate8RefCount5derefEv.exit.thread2.i
  %15 = load ptr, ptr @_ZL17globalLogTextEdit, align 8
  call void @_ZN9QTextEdit19ensureCursorVisibleEv(ptr noundef nonnull align 8 dereferenceable(48) %15)
  %16 = load ptr, ptr @_ZL17globalLogTextEdit, align 8
  call void @_ZN7QWidget6updateEv(ptr noundef nonnull align 8 dereferenceable(48) %16)
  call void @_ZN16QCoreApplication13processEventsE6QFlagsIN10QEventLoop17ProcessEventsFlagEE(i32 0)
  ret i1 true

17:                                               ; preds = %_ZN7QStringC2EPKc.exit
  %18 = landingpad { ptr, i32 }
          cleanup
  call void @_ZN7QStringD2Ev(ptr noundef nonnull align 8 dereferenceable(8) %3) #19
  resume { ptr, i32 } %18
}